target datalayout = "e-m:e-p270:32:32-p271:32:32-p272:64:64-i64:64-i128:128-f80:128-n8:16:32:64-S128"
target triple = "x86_64-pc-linux-gnu"

%struct.ImGuiContext = type { i8, i8, %struct.ImGuiIO, %struct.ImGuiPlatformIO, %struct.ImGuiStyle, ptr, float, float, float, float, %struct.ImDrawListSharedData, double, i32, i32, i32, i32, i8, i8, i8, i8, ptr, [16 x i8], %struct.ImVector.1, %struct.ImVector.1, i32, i32, %struct.ImVector.2, %struct.ImVector.2, %struct.ImVector.2, %struct.ImVector.3, %struct.ImGuiStorage, i32, float, i32, ptr, ptr, ptr, ptr, ptr, ptr, %struct.ImVec2, i32, i32, float, %struct.ImVec2, %struct.ImVec2, i32, i32, i32, i32, i32, float, float, i8, i8, i8, i32, i32, float, i8, i8, i8, i8, i8, i8, i8, i8, %struct.ImVec2, ptr, i32, i32, %struct.ImGuiDeactivatedItemData, %struct.ImGuiDataTypeStorage, i32, float, double, double, double, %struct.ImBitArray, [154 x %struct.ImGuiKeyOwnerData], %struct.ImGuiKeyRoutingTable, i32, i8, i32, i32, i32, i32, %struct.ImGuiNextItemData, %struct.ImGuiLastItemData, %struct.ImGuiNextWindowData, i8, i32, %struct.ImVector.6, %struct.ImVector.7, %struct.ImVector.8, %struct.ImVector.9, %struct.ImVector.10, %struct.ImVector.11, %struct.ImVector.12, %struct.ImVector.12, %struct.ImVector.13, %struct.ImVector.14, i8, i8, i8, i8, i32, ptr, i32, i32, i32, i32, i32, i32, %struct.ImVector.9, i32, float, i32, i32, i32, i64, i8, i8, i8, i8, %struct.ImGuiNavItemData, i8, i8, i8, i32, i32, i32, i32, i32, i32, %struct.ImRect, %struct.ImRect, i32, i32, i32, %struct.ImGuiNavItemData, %struct.ImGuiNavItemData, %struct.ImGuiNavItemData, %struct.ImGuiNavItemData, i32, i32, i32, i32, i8, i8, i32, i32, ptr, ptr, ptr, float, float, i8, i32, %struct.ImVec2, %struct.ImVec2, float, i8, i8, i8, i32, i32, i32, [4 x i8], %struct.ImGuiPayload, %struct.ImRect, %struct.ImRect, i32, i32, float, i32, i32, i32, i32, %struct.ImVector.15, [16 x i8], i32, %struct.ImVector.16, ptr, i32, i32, %struct.ImVector.17, %struct.ImPool, %struct.ImVector.19, %struct.ImVector.20, ptr, %struct.ImPool.21, %struct.ImVector.23, %struct.ImVector.24, %struct.ImGuiBoxSelectState, ptr, i32, %struct.ImVector.25, %struct.ImPool.26, i32, i32, float, float, i32, i32, i32, float, %struct.ImVec2, %struct.ImGuiInputTextState, %struct.ImGuiInputTextDeactivatedState, %struct.ImFont, i32, %struct.ImGuiDataTypeStorage, i32, i32, i32, i32, i32, float, float, i32, %struct.ImVec4, %struct.ImGuiComboPreviewData, %struct.ImRect, i8, i16, float, float, float, i8, i8, float, float, float, i16, i16, ptr, %struct.ImVector.28, %struct.ImVector.30, %struct.ImGuiTypingSelectState, %struct.ImGuiPlatformImeData, %struct.ImGuiPlatformImeData, i8, float, %struct.ImGuiTextBuffer, %struct.ImVector.31, %struct.ImChunkStream, %struct.ImChunkStream.32, %struct.ImVector.33, i32, [10 x ptr], i8, i32, ptr, ptr, %struct.ImGuiTextBuffer, ptr, ptr, float, i8, i32, i32, i32, ptr, ptr, %struct.ImVec2, i8, i32, %struct.ImGuiErrorRecoveryState, ptr, i32, i32, %struct.ImGuiTextBuffer, %struct.ImGuiTextIndex, i32, i32, i8, i8, i8, i32, i8, i8, i8, i32, float, %struct.ImVec4, %struct.ImGuiMetricsConfig, %struct.ImGuiIDStackTool, %struct.ImGuiDebugAllocInfo, [60 x float], i32, i32, float, i32, i32, i32, %struct.ImVector.28, [64 x i8] }
%struct.ImGuiIO = type { i32, i32, %struct.ImVec2, float, float, ptr, ptr, ptr, ptr, float, i8, ptr, %struct.ImVec2, i8, i8, i8, i8, i8, i8, i8, i8, i8, i8, i8, i8, i8, i8, i8, i8, i8, float, float, float, float, float, float, i8, i8, i8, i8, i8, i8, i8, i8, i8, i8, ptr, ptr, ptr, ptr, ptr, i8, i8, i8, i8, i8, i8, i8, float, i32, i32, i32, i32, %struct.ImVec2, ptr, %struct.ImVec2, [5 x i8], float, float, i32, i8, i8, i8, i8, i32, [154 x %struct.ImGuiKeyData], i8, %struct.ImVec2, [5 x %struct.ImVec2], [5 x double], [5 x i8], [5 x i8], [5 x i16], [5 x i16], [5 x i8], [5 x double], [5 x i8], [5 x i8], i8, i8, [5 x float], [5 x float], [5 x float], float, i8, i8, i16, %struct.ImVector, ptr, ptr, ptr }
%struct.ImGuiKeyData = type { i8, float, float, float }
%struct.ImVector = type { i32, i32, ptr }
%struct.ImGuiPlatformIO = type { ptr, ptr, ptr, ptr, ptr, ptr, ptr, i16, ptr }
%struct.ImGuiStyle = type { float, float, %struct.ImVec2, float, float, float, %struct.ImVec2, %struct.ImVec2, i32, float, float, float, float, %struct.ImVec2, float, float, %struct.ImVec2, %struct.ImVec2, %struct.ImVec2, %struct.ImVec2, float, float, float, float, float, float, float, float, float, float, float, float, float, float, %struct.ImVec2, i32, %struct.ImVec2, %struct.ImVec2, float, %struct.ImVec2, %struct.ImVec2, %struct.ImVec2, %struct.ImVec2, float, i8, i8, i8, float, float, [56 x %struct.ImVec4], float, float, float, i32, i32 }
%struct.ImDrawListSharedData = type <{ %struct.ImVec2, ptr, ptr, float, float, float, float, float, i32, %struct.ImVec4, %struct.ImVector.0, [48 x %struct.ImVec2], float, [64 x i8], [4 x i8] }>
%struct.ImVector.0 = type { i32, i32, ptr }
%struct.ImVector.1 = type { i32, i32, ptr }
%struct.ImVector.2 = type { i32, i32, ptr }
%struct.ImVector.3 = type { i32, i32, ptr }
%struct.ImGuiStorage = type { %struct.ImVector.4 }
%struct.ImVector.4 = type { i32, i32, ptr }
%struct.ImGuiDeactivatedItemData = type { i32, i32, i8, i8 }
%struct.ImBitArray = type { [5 x i32] }
%struct.ImGuiKeyOwnerData = type <{ i32, i32, i8, i8, [2 x i8] }>
%struct.ImGuiKeyRoutingTable = type { [154 x i16], %struct.ImVector.5, %struct.ImVector.5 }
%struct.ImVector.5 = type { i32, i32, ptr }
%struct.ImGuiNextItemData = type <{ i32, i32, i32, [4 x i8], i64, float, i32, i32, i8, i8, %struct.ImGuiDataTypeStorage, [2 x i8], i32, [4 x i8] }>
%struct.ImGuiLastItemData = type { i32, i32, i32, %struct.ImRect, %struct.ImRect, %struct.ImRect, %struct.ImRect, i32 }
%struct.ImGuiNextWindowData = type { i32, i32, i32, i32, %struct.ImVec2, %struct.ImVec2, %struct.ImVec2, %struct.ImVec2, %struct.ImVec2, i32, i32, i8, %struct.ImRect, ptr, ptr, float, %struct.ImVec2, i32 }
%struct.ImVector.6 = type { i32, i32, ptr }
%struct.ImVector.7 = type { i32, i32, ptr }
%struct.ImVector.8 = type { i32, i32, ptr }
%struct.ImVector.10 = type { i32, i32, ptr }
%struct.ImVector.11 = type { i32, i32, ptr }
%struct.ImVector.12 = type { i32, i32, ptr }
%struct.ImVector.13 = type { i32, i32, ptr }
%struct.ImVector.14 = type { i32, i32, ptr }
%struct.ImVector.9 = type { i32, i32, ptr }
%struct.ImGuiNavItemData = type { ptr, i32, i32, %struct.ImRect, i32, float, float, float, i64 }
%struct.ImGuiPayload = type <{ ptr, i32, i32, i32, i32, [33 x i8], i8, i8, [5 x i8] }>
%struct.ImVector.15 = type { i32, i32, ptr }
%struct.ImVector.16 = type { i32, i32, ptr }
%struct.ImVector.17 = type { i32, i32, ptr }
%struct.ImPool = type { %struct.ImVector.18, %struct.ImGuiStorage, i32, i32 }
%struct.ImVector.18 = type { i32, i32, ptr }
%struct.ImVector.19 = type { i32, i32, ptr }
%struct.ImVector.20 = type { i32, i32, ptr }
%struct.ImPool.21 = type { %struct.ImVector.22, %struct.ImGuiStorage, i32, i32 }
%struct.ImVector.22 = type { i32, i32, ptr }
%struct.ImVector.23 = type { i32, i32, ptr }
%struct.ImVector.24 = type { i32, i32, ptr }
%struct.ImGuiBoxSelectState = type <{ i32, i8, i8, i8, i8, i8, i16, i8, %struct.ImVec2, %struct.ImVec2, %struct.ImVec2, [4 x i8], ptr, i8, [3 x i8], %struct.ImRect, %struct.ImRect, %struct.ImRect, [4 x i8] }>
%struct.ImVector.25 = type { i32, i32, ptr }
%struct.ImPool.26 = type { %struct.ImVector.27, %struct.ImGuiStorage, i32, i32 }
%struct.ImVector.27 = type { i32, i32, ptr }
%struct.ImGuiInputTextState = type <{ ptr, ptr, i32, i32, i32, [4 x i8], ptr, %struct.ImVector.28, %struct.ImVector.28, %struct.ImVector.28, i32, %struct.ImVec2, float, i8, i8, i8, i8, i32, i32, [4 x i8] }>
%struct.ImGuiInputTextDeactivatedState = type { i32, %struct.ImVector.28 }
%struct.ImFont = type <{ %struct.ImVector.19, float, float, %struct.ImVector, %struct.ImVector.29, ptr, ptr, ptr, i16, i16, i16, i16, float, float, float, float, float, i32, i8, [1 x i8], [6 x i8] }>
%struct.ImVector.29 = type { i32, i32, ptr }
%struct.ImGuiDataTypeStorage = type { [8 x i8] }
%struct.ImGuiComboPreviewData = type { %struct.ImRect, %struct.ImVec2, %struct.ImVec2, %struct.ImVec2, float, i32 }
%struct.ImRect = type { %struct.ImVec2, %struct.ImVec2 }
%struct.ImVector.30 = type { i32, i32, ptr }
%struct.ImGuiTypingSelectState = type <{ %struct.ImGuiTypingSelectRequest, [64 x i8], i32, i32, float, i8, [3 x i8] }>
%struct.ImGuiTypingSelectRequest = type { i32, i32, ptr, i8, i8, i8 }
%struct.ImGuiPlatformImeData = type { i8, %struct.ImVec2, float }
%struct.ImVector.31 = type { i32, i32, ptr }
%struct.ImChunkStream = type { %struct.ImVector.28 }
%struct.ImChunkStream.32 = type { %struct.ImVector.28 }
%struct.ImVector.33 = type { i32, i32, ptr }
%struct.ImVec2 = type { float, float }
%struct.ImGuiErrorRecoveryState = type { i16, i16, i16, i16, i16, i16, i16, i16, i16, i16, i16 }
%struct.ImGuiTextBuffer = type { %struct.ImVector.28 }
%struct.ImGuiTextIndex = type <{ %struct.ImVector.10, i32, [4 x i8] }>
%struct.ImVec4 = type { float, float, float, float }
%struct.ImGuiMetricsConfig = type { i8, i8, i8, i8, i8, i8, i8, i8, i8, i32, i32, i32, i32 }
%struct.ImGuiIDStackTool = type { i32, i32, i32, %struct.ImVector.34, i8, float }
%struct.ImVector.34 = type { i32, i32, ptr }
%struct.ImGuiDebugAllocInfo = type { i32, i32, i16, [6 x %struct.ImGuiDebugAllocEntry] }
%struct.ImGuiDebugAllocEntry = type { i32, i16, i16 }
%struct.ImVector.28 = type { i32, i32, ptr }
%struct.ImGuiTableInstanceData = type { i32, float, float, float, i32, i32 }
%struct.ImGuiTableColumn = type <{ i32, float, float, float, float, float, float, float, float, %struct.ImRect, i32, float, float, float, float, float, float, float, i16, i16, i16, i16, i16, i16, i16, i16, i16, i8, i8, i8, i8, i8, i8, i8, i8, i8, i8, i8, i8, i8, i8 }>
%struct.ImGuiTable = type <{ i32, i32, ptr, ptr, %struct.ImSpan, %struct.ImSpan.41, %struct.ImSpan.42, ptr, ptr, ptr, i32, i32, i32, i32, i32, i32, i16, i16, float, float, float, float, float, float, i32, i32, [2 x i32], i32, i32, float, float, float, float, float, float, float, float, float, float, float, float, float, float, float, float, float, %struct.ImRect, %struct.ImRect, %struct.ImRect, %struct.ImRect, %struct.ImRect, %struct.ImRect, %struct.ImRect, %struct.ImRect, %struct.ImRect, ptr, ptr, %struct.ImGuiTextBuffer, ptr, %struct.ImGuiTableInstanceData, %struct.ImVector.43, %struct.ImGuiTableColumnSortSpecs, [4 x i8], %struct.ImVector.44, %struct.ImGuiTableSortSpecs, i16, i16, i16, i16, i16, i16, i16, i16, i16, i16, i16, i16, i16, i16, i16, i16, i16, i16, i16, i16, i16, i16, i16, i16, i16, i16, i16, i8, i8, i8, i8, i8, i8, i8, i8, i8, i8, i8, i8, i8, i8, i8, i8, i8, i8, i8, i8, i8, [5 x i8] }>
%struct.ImSpan = type { ptr, ptr }
%struct.ImSpan.41 = type { ptr, ptr }
%struct.ImSpan.42 = type { ptr, ptr }
%struct.ImVector.43 = type { i32, i32, ptr }
%struct.ImGuiTableColumnSortSpecs = type <{ i32, i16, i16, i8, [3 x i8] }>
%struct.ImVector.44 = type { i32, i32, ptr }
%struct.ImGuiTableSortSpecs = type <{ ptr, i32, i8, [3 x i8] }>

@GImGui = external global ptr, align 8
@.str.6 = private unnamed_addr constant [1 x i8] zeroinitializer, align 1

; Function Attrs: inlinehint mustprogress nounwind uwtable
define linkonce_odr noundef nonnull align 1 dereferenceable(1) ptr @_ZNK8ImVectorIcEixEi(ptr noundef nonnull align 8 dereferenceable(16) %0, i32 noundef %1) #4 comdat align 2 {
  %3 = alloca ptr, align 8
  %4 = alloca i32, align 4
  store ptr %0, ptr %3, align 8, !tbaa !386
  store i32 %1, ptr %4, align 4, !tbaa !3
  %5 = load ptr, ptr %3, align 8
  %6 = getelementptr inbounds nuw %struct.ImVector.28, ptr %5, i32 0, i32 2
  %7 = load ptr, ptr %6, align 8, !tbaa !570
  %8 = load i32, ptr %4, align 4, !tbaa !3
  %9 = sext i32 %8 to i64
  %10 = getelementptr inbounds i8, ptr %7, i64 %9
  ret ptr %10
}

; Function Attrs: inlinehint mustprogress nounwind uwtable
define linkonce_odr noundef nonnull align 4 dereferenceable(115) ptr @_ZNK6ImSpanI16ImGuiTableColumnEixEi(ptr noundef nonnull align 8 dereferenceable(16) %0, i32 noundef %1) #4 comdat align 2 {
  %3 = alloca ptr, align 8
  %4 = alloca i32, align 4
  %5 = alloca ptr, align 8
  store ptr %0, ptr %3, align 8, !tbaa !345
  store i32 %1, ptr %4, align 4, !tbaa !3
  %6 = load ptr, ptr %3, align 8
  call void @llvm.lifetime.start.p0(i64 8, ptr %5) #8
  %7 = getelementptr inbounds nuw %struct.ImSpan, ptr %6, i32 0, i32 0
  %8 = load ptr, ptr %7, align 8, !tbaa !348
  %9 = load i32, ptr %4, align 4, !tbaa !3
  %10 = sext i32 %9 to i64
  %11 = getelementptr inbounds %struct.ImGuiTableColumn, ptr %8, i64 %10
  store ptr %11, ptr %5, align 8, !tbaa !265
  %12 = load ptr, ptr %5, align 8, !tbaa !265
  call void @llvm.lifetime.end.p0(i64 8, ptr %5) #8
  ret ptr %12
}

; Function Attrs: inlinehint mustprogress nounwind uwtable
define internal noundef float @_ZL5ImMaxIfET_S0_S0_(float noundef %0, float noundef %1) #4 {
  %3 = alloca float, align 4
  %4 = alloca float, align 4
  store float %0, ptr %3, align 4, !tbaa !16
  store float %1, ptr %4, align 4, !tbaa !16
  %5 = load float, ptr %3, align 4, !tbaa !16
  %6 = load float, ptr %4, align 4, !tbaa !16
  %7 = fcmp oge float %5, %6
  br i1 %7, label %8, label %10

8:                                                ; preds = %2
  %9 = load float, ptr %3, align 4, !tbaa !16
  br label %12

10:                                               ; preds = %2
  %11 = load float, ptr %4, align 4, !tbaa !16
  br label %12

12:                                               ; preds = %10, %8
  %13 = phi float [ %9, %8 ], [ %11, %10 ]
  ret float %13
}

; Function Attrs: mustprogress uwtable
define noundef ptr @_ZN5ImGui18TableGetColumnNameEPK10ImGuiTablei(ptr noundef %0, i32 noundef %1) #0 {
  %3 = alloca ptr, align 8
  %4 = alloca ptr, align 8
  %5 = alloca i32, align 4
  %6 = alloca ptr, align 8
  %7 = alloca i32, align 4
  store ptr %0, ptr %4, align 8, !tbaa !167
  store i32 %1, ptr %5, align 4, !tbaa !3
  %8 = load ptr, ptr %4, align 8, !tbaa !167
  %9 = getelementptr inbounds nuw %struct.ImGuiTable, ptr %8, i32 0, i32 93
  %10 = load i8, ptr %9, align 1, !tbaa !201, !range !67, !noundef !68
  %11 = trunc i8 %10 to i1
  %12 = zext i1 %11 to i32
  %13 = icmp eq i32 %12, 0
  br i1 %13, label %14, label %22

14:                                               ; preds = %2
  %15 = load i32, ptr %5, align 4, !tbaa !3
  %16 = load ptr, ptr %4, align 8, !tbaa !167
  %17 = getelementptr inbounds nuw %struct.ImGuiTable, ptr %16, i32 0, i32 68
  %18 = load i16, ptr %17, align 2, !tbaa !251
  %19 = sext i16 %18 to i32
  %20 = icmp sge i32 %15, %19
  br i1 %20, label %21, label %22

21:                                               ; preds = %14
  store ptr @.str.6, ptr %3, align 8
  br label %43

22:                                               ; preds = %14, %2
  call void @llvm.lifetime.start.p0(i64 8, ptr %6) #8
  %23 = load ptr, ptr %4, align 8, !tbaa !167
  %24 = getelementptr inbounds nuw %struct.ImGuiTable, ptr %23, i32 0, i32 4
  %25 = load i32, ptr %5, align 4, !tbaa !3
  %26 = call noundef nonnull align 4 dereferenceable(115) ptr @_ZNK6ImSpanI16ImGuiTableColumnEixEi(ptr noundef nonnull align 8 dereferenceable(16) %24, i32 noundef %25)
  store ptr %26, ptr %6, align 8, !tbaa !265
  %27 = load ptr, ptr %6, align 8, !tbaa !265
  %28 = getelementptr inbounds nuw %struct.ImGuiTableColumn, ptr %27, i32 0, i32 18
  %29 = load i16, ptr %28, align 4, !tbaa !355
  %30 = sext i16 %29 to i32
  %31 = icmp eq i32 %30, -1
  br i1 %31, label %32, label %33

32:                                               ; preds = %22
  store ptr @.str.6, ptr %3, align 8
  store i32 1, ptr %7, align 4
  br label %42

33:                                               ; preds = %22
  %34 = load ptr, ptr %4, align 8, !tbaa !167
  %35 = getelementptr inbounds nuw %struct.ImGuiTable, ptr %34, i32 0, i32 57
  %36 = getelementptr inbounds nuw %struct.ImGuiTextBuffer, ptr %35, i32 0, i32 0
  %37 = load ptr, ptr %6, align 8, !tbaa !265
  %38 = getelementptr inbounds nuw %struct.ImGuiTableColumn, ptr %37, i32 0, i32 18
  %39 = load i16, ptr %38, align 4, !tbaa !355
  %40 = sext i16 %39 to i32
  %41 = call noundef nonnull align 1 dereferenceable(1) ptr @_ZNK8ImVectorIcEixEi(ptr noundef nonnull align 8 dereferenceable(16) %36, i32 noundef %40)
  store ptr %41, ptr %3, align 8
  store i32 1, ptr %7, align 4
  br label %42

42:                                               ; preds = %33, %32
  call void @llvm.lifetime.end.p0(i64 8, ptr %6) #8
  br label %43

43:                                               ; preds = %42, %21
  %44 = load ptr, ptr %3, align 8
  ret ptr %44
}

; Function Attrs: inlinehint mustprogress nounwind uwtable
define linkonce_odr noundef nonnull align 4 dereferenceable(115) ptr @_ZN6ImSpanI16ImGuiTableColumnEixEi(ptr noundef nonnull align 8 dereferenceable(16) %0, i32 noundef %1) #4 comdat align 2 {
  %3 = alloca ptr, align 8
  %4 = alloca i32, align 4
  %5 = alloca ptr, align 8
  store ptr %0, ptr %3, align 8, !tbaa !345
  store i32 %1, ptr %4, align 4, !tbaa !3
  %6 = load ptr, ptr %3, align 8
  call void @llvm.lifetime.start.p0(i64 8, ptr %5) #8
  %7 = getelementptr inbounds nuw %struct.ImSpan, ptr %6, i32 0, i32 0
  %8 = load ptr, ptr %7, align 8, !tbaa !348
  %9 = load i32, ptr %4, align 4, !tbaa !3
  %10 = sext i32 %9 to i64
  %11 = getelementptr inbounds %struct.ImGuiTableColumn, ptr %8, i64 %10
  store ptr %11, ptr %5, align 8, !tbaa !265
  %12 = load ptr, ptr %5, align 8, !tbaa !265
  call void @llvm.lifetime.end.p0(i64 8, ptr %5) #8
  ret ptr %12
}

; Function Attrs: mustprogress uwtable
define noundef float @_ZN5ImGui33TableGetHeaderAngledMaxLabelWidthEv() #3 {
  %1 = alloca ptr, align 8
  %2 = alloca ptr, align 8
  %3 = alloca float, align 4
  %4 = alloca i32, align 4
  %5 = alloca %struct.ImVec2, align 4
  call void @llvm.lifetime.start.p0(i64 8, ptr %1) #8
  %6 = load ptr, ptr @GImGui, align 8, !tbaa !7
  store ptr %6, ptr %1, align 8, !tbaa !7
  call void @llvm.lifetime.start.p0(i64 8, ptr %2) #8
  %7 = load ptr, ptr %1, align 8, !tbaa !7
  %8 = getelementptr inbounds nuw %struct.ImGuiContext, ptr %7, i32 0, i32 183
  %9 = load ptr, ptr %8, align 8, !tbaa !257
  store ptr %9, ptr %2, align 8, !tbaa !167
  call void @llvm.lifetime.start.p0(i64 4, ptr %3) #8
  store float 0.000000e+00, ptr %3, align 4, !tbaa !16
  call void @llvm.lifetime.start.p0(i64 4, ptr %4) #8
  store i32 0, ptr %4, align 4, !tbaa !3
  br label %10

10:                                               ; preds = %51, %0
  %11 = load i32, ptr %4, align 4, !tbaa !3
  %12 = load ptr, ptr %2, align 8, !tbaa !167
  %13 = getelementptr inbounds nuw %struct.ImGuiTable, ptr %12, i32 0, i32 13
  %14 = load i32, ptr %13, align 4, !tbaa !200
  %15 = icmp slt i32 %11, %14
  br i1 %15, label %17, label %16

16:                                               ; preds = %10
  call void @llvm.lifetime.end.p0(i64 4, ptr %4) #8
  br label %54

17:                                               ; preds = %10
  %18 = load ptr, ptr %2, align 8, !tbaa !167
  %19 = getelementptr inbounds nuw %struct.ImGuiTable, ptr %18, i32 0, i32 8
  %20 = load ptr, ptr %19, align 8, !tbaa !351
  %21 = load i32, ptr %4, align 4, !tbaa !3
  %22 = ashr i32 %21, 5
  %23 = sext i32 %22 to i64
  %24 = getelementptr inbounds i32, ptr %20, i64 %23
  %25 = load i32, ptr %24, align 4, !tbaa !3
  %26 = load i32, ptr %4, align 4, !tbaa !3
  %27 = and i32 %26, 31
  %28 = shl i32 1, %27
  %29 = and i32 %25, %28
  %30 = icmp ne i32 %29, 0
  br i1 %30, label %31, label %50

31:                                               ; preds = %17
  %32 = load ptr, ptr %2, align 8, !tbaa !167
  %33 = getelementptr inbounds nuw %struct.ImGuiTable, ptr %32, i32 0, i32 4
  %34 = load i32, ptr %4, align 4, !tbaa !3
  %35 = call noundef nonnull align 4 dereferenceable(115) ptr @_ZN6ImSpanI16ImGuiTableColumnEixEi(ptr noundef nonnull align 8 dereferenceable(16) %33, i32 noundef %34)
  %36 = getelementptr inbounds nuw %struct.ImGuiTableColumn, ptr %35, i32 0, i32 0
  %37 = load i32, ptr %36, align 4, !tbaa !409
  %38 = and i32 %37, 262144
  %39 = icmp ne i32 %38, 0
  br i1 %39, label %40, label %49

40:                                               ; preds = %31
  %41 = load float, ptr %3, align 4, !tbaa !16
  call void @llvm.lifetime.start.p0(i64 8, ptr %5) #8
  %42 = load ptr, ptr %2, align 8, !tbaa !167
  %43 = load i32, ptr %4, align 4, !tbaa !3
  %44 = call noundef ptr @_ZN5ImGui18TableGetColumnNameEPK10ImGuiTablei(ptr noundef %42, i32 noundef %43)
  %45 = call <2 x float> @_ZN5ImGui12CalcTextSizeEPKcS1_bf(ptr noundef %44, ptr noundef null, i1 noundef zeroext true, float noundef -1.000000e+00)
  store <2 x float> %45, ptr %5, align 4
  %46 = getelementptr inbounds nuw %struct.ImVec2, ptr %5, i32 0, i32 0
  %47 = load float, ptr %46, align 4, !tbaa !71
  %48 = call noundef float @_ZL5ImMaxIfET_S0_S0_(float noundef %41, float noundef %47)
  store float %48, ptr %3, align 4, !tbaa !16
  call void @llvm.lifetime.end.p0(i64 8, ptr %5) #8
  br label %49

49:                                               ; preds = %40, %31
  br label %50

50:                                               ; preds = %49, %17
  br label %51

51:                                               ; preds = %50
  %52 = load i32, ptr %4, align 4, !tbaa !3
  %53 = add nsw i32 %52, 1
  store i32 %53, ptr %4, align 4, !tbaa !3
  br label %10, !llvm.loop !615

54:                                               ; preds = %16
  %55 = load float, ptr %3, align 4, !tbaa !16
  %56 = load ptr, ptr %1, align 8, !tbaa !7
  %57 = getelementptr inbounds nuw %struct.ImGuiContext, ptr %56, i32 0, i32 4
  %58 = getelementptr inbounds nuw %struct.ImGuiStyle, ptr %57, i32 0, i32 18
  %59 = getelementptr inbounds nuw %struct.ImVec2, ptr %58, i32 0, i32 1
  %60 = load float, ptr %59, align 4, !tbaa !465
  %61 = call float @llvm.fmuladd.f32(float %60, float 2.000000e+00, float %55)
  call void @llvm.lifetime.end.p0(i64 4, ptr %3) #8
  call void @llvm.lifetime.end.p0(i64 8, ptr %2) #8
  call void @llvm.lifetime.end.p0(i64 8, ptr %1) #8
  ret float %61
}