; Function Attrs: mustprogress uwtable
define noundef float @_ZN5ImGui33TableGetHeaderAngledMaxLabelWidthEv() local_unnamed_addr #3 {
  %1 = load ptr, ptr @GImGui, align 8, !tbaa !3
  %2 = getelementptr inbounds nuw i8, ptr %1, i64 8640
  %3 = load ptr, ptr %2, align 8, !tbaa !266
  %4 = getelementptr inbounds nuw i8, ptr %3, i64 108
  %5 = load i32, ptr %4, align 4, !tbaa !209
  %6 = icmp sgt i32 %5, 0
  br i1 %6, label %.lr.ph, label %._crit_edge

.lr.ph:                                           ; preds = %0
  %7 = getelementptr inbounds nuw i8, ptr %3, i64 80
  %8 = getelementptr inbounds nuw i8, ptr %3, i64 24
  %9 = getelementptr inbounds nuw i8, ptr %3, i64 567
  %10 = getelementptr inbounds nuw i8, ptr %3, i64 518
  %11 = getelementptr inbounds nuw i8, ptr %3, i64 408
  br label %15

._crit_edge:                                      ; preds = %48, %0
  %.0.lcssa = phi float [ 0.000000e+00, %0 ], [ %.1, %48 ]
  %12 = getelementptr inbounds nuw i8, ptr %1, i64 3196
  %13 = load float, ptr %12, align 4, !tbaa !425
  %14 = tail call float @llvm.fmuladd.f32(float %13, float 2.000000e+00, float %.0.lcssa)
  ret float %14

15:                                               ; preds = %.lr.ph, %48
  %16 = phi i32 [ %5, %.lr.ph ], [ %49, %48 ]
  %indvars.iv = phi i64 [ 0, %.lr.ph ], [ %indvars.iv.next, %48 ]
  %.018 = phi float [ 0.000000e+00, %.lr.ph ], [ %.1, %48 ]
  %17 = load ptr, ptr %7, align 8, !tbaa !287
  %18 = trunc nuw nsw i64 %indvars.iv to i32
  %19 = lshr i64 %indvars.iv, 5
  %20 = and i64 %19, 134217727
  %21 = getelementptr inbounds nuw i32, ptr %17, i64 %20
  %22 = load i32, ptr %21, align 4, !tbaa !280
  %23 = and i32 %18, 31
  %24 = shl nuw i32 1, %23
  %25 = and i32 %22, %24
  %.not = icmp eq i32 %25, 0
  br i1 %.not, label %48, label %26

26:                                               ; preds = %15
  %27 = load ptr, ptr %8, align 8, !tbaa !278
  %28 = getelementptr inbounds nuw %struct.ImGuiTableColumn, ptr %27, i64 %indvars.iv
  %29 = load i32, ptr %28, align 4, !tbaa !339
  %30 = and i32 %29, 262144
  %.not14 = icmp eq i32 %30, 0
  br i1 %.not14, label %48, label %31

31:                                               ; preds = %26
  %32 = load i8, ptr %9, align 1, !tbaa !210, !range !153, !noundef !154
  %33 = icmp eq i8 %32, 0
  br i1 %33, label %34, label %37

34:                                               ; preds = %31
  %35 = load i16, ptr %10, align 2, !tbaa !260
  %36 = sext i16 %35 to i64
  %.not.i = icmp slt i64 %indvars.iv, %36
  br i1 %.not.i, label %37, label %_ZN5ImGui18TableGetColumnNameEPK10ImGuiTablei.exit

37:                                               ; preds = %34, %31
  %38 = getelementptr inbounds nuw %struct.ImGuiTableColumn, ptr %27, i64 %indvars.iv, i32 18
  %39 = load i16, ptr %38, align 4, !tbaa !371
  %40 = icmp eq i16 %39, -1
  br i1 %40, label %_ZN5ImGui18TableGetColumnNameEPK10ImGuiTablei.exit, label %41

41:                                               ; preds = %37
  %42 = load ptr, ptr %11, align 8, !tbaa !323
  %43 = sext i16 %39 to i64
  %44 = getelementptr inbounds i8, ptr %42, i64 %43
  br label %_ZN5ImGui18TableGetColumnNameEPK10ImGuiTablei.exit

_ZN5ImGui18TableGetColumnNameEPK10ImGuiTablei.exit: ; preds = %34, %37, %41
  %.0.i = phi ptr [ @.str.6, %34 ], [ %44, %41 ], [ @.str.6, %37 ]
  %45 = tail call <2 x float> @_ZN5ImGui12CalcTextSizeEPKcS1_bf(ptr noundef %.0.i, ptr noundef null, i1 noundef zeroext true, float noundef -1.000000e+00)
  %.sroa.0.0.vec.extract = extractelement <2 x float> %45, i64 0
  %46 = fcmp oge float %.018, %.sroa.0.0.vec.extract
  %47 = select i1 %46, float %.018, float %.sroa.0.0.vec.extract
  %.pre = load i32, ptr %4, align 4, !tbaa !209
  br label %48

48:                                               ; preds = %15, %_ZN5ImGui18TableGetColumnNameEPK10ImGuiTablei.exit, %26
  %49 = phi i32 [ %.pre, %_ZN5ImGui18TableGetColumnNameEPK10ImGuiTablei.exit ], [ %16, %26 ], [ %16, %15 ]
  %.1 = phi float [ %47, %_ZN5ImGui18TableGetColumnNameEPK10ImGuiTablei.exit ], [ %.018, %26 ], [ %.018, %15 ]
  %indvars.iv.next = add nuw nsw i64 %indvars.iv, 1
  %50 = sext i32 %49 to i64
  %51 = icmp slt i64 %indvars.iv.next, %50
  br i1 %51, label %15, label %._crit_edge, !llvm.loop !562
}